; Function Attrs: mustprogress uwtable
define void @_ZN7rocksdb17AppendInternalKeyEPNSt7__cxx1112basic_stringIcSt11char_traitsIcESaIcEEERKNS_17ParsedInternalKeyE(ptr noundef %0, ptr noundef nonnull readonly align 8 captures(none) dereferenceable(25) %1) local_unnamed_addr #4 personality ptr @__gxx_personality_v0 {
  %3 = alloca i64, align 8
  %4 = getelementptr inbounds nuw i8, ptr %1, i64 8
  %5 = load i64, ptr %4, align 8, !tbaa !4
  %6 = getelementptr inbounds nuw i8, ptr %0, i64 8
  %7 = load i64, ptr %6, align 8, !tbaa !11
  %8 = sub i64 4611686018427387903, %7
  %9 = icmp ult i64 %8, %5
  br i1 %9, label %10, label %_ZNSt7__cxx1112basic_stringIcSt11char_traitsIcESaIcEE6appendEPKcm.exit

10:                                               ; preds = %2
  tail call void @_ZSt20__throw_length_errorPKc(ptr noundef nonnull @.str.11) #19
  unreachable

_ZNSt7__cxx1112basic_stringIcSt11char_traitsIcESaIcEE6appendEPKcm.exit: ; preds = %2
  %11 = load ptr, ptr %1, align 8, !tbaa !14
  %12 = tail call noundef nonnull align 8 dereferenceable(32) ptr @_ZNSt7__cxx1112basic_stringIcSt11char_traitsIcESaIcEE9_M_appendEPKcm(ptr noundef nonnull align 8 dereferenceable(32) %0, ptr noundef %11, i64 noundef %5)
  %13 = getelementptr inbounds nuw i8, ptr %1, i64 16
  %14 = load i64, ptr %13, align 8, !tbaa !15
  %15 = getelementptr inbounds nuw i8, ptr %1, i64 24
  %16 = load i8, ptr %15, align 8, !tbaa !18
  %17 = shl i64 %14, 8
  %18 = zext i8 %16 to i64
  %19 = or disjoint i64 %17, %18
  call void @llvm.lifetime.start.p0(i64 8, ptr nonnull %3)
  store i64 %19, ptr %3, align 8, !tbaa !19
  %20 = load i64, ptr %6, align 8, !tbaa !11
  %21 = and i64 %20, -8
  %22 = icmp eq i64 %21, 4611686018427387896
  br i1 %22, label %23, label %_ZN7rocksdb10PutFixed64EPNSt7__cxx1112basic_stringIcSt11char_traitsIcESaIcEEEm.exit

23:                                               ; preds = %_ZNSt7__cxx1112basic_stringIcSt11char_traitsIcESaIcEE6appendEPKcm.exit
  tail call void @_ZSt20__throw_length_errorPKc(ptr noundef nonnull @.str.11) #19
  unreachable

_ZN7rocksdb10PutFixed64EPNSt7__cxx1112basic_stringIcSt11char_traitsIcESaIcEEEm.exit: ; preds = %_ZNSt7__cxx1112basic_stringIcSt11char_traitsIcESaIcEE6appendEPKcm.exit
  %24 = call noundef nonnull align 8 dereferenceable(32) ptr @_ZNSt7__cxx1112basic_stringIcSt11char_traitsIcESaIcEE9_M_appendEPKcm(ptr noundef nonnull align 8 dereferenceable(32) %0, ptr noundef nonnull %3, i64 noundef 8)
  call void @llvm.lifetime.end.p0(i64 8, ptr nonnull %3)
  ret void
}